; ModuleID = 'source-C-CXX/36/1610.cpp'
source_filename = "source-C-CXX/36/1610.cpp"
target datalayout = "e-m:e-p270:32:32-p271:32:32-p272:64:64-i64:64-f80:128-n8:16:32:64-S128"
target triple = "x86_64-pc-linux-gnu"

%"class.std::ios_base::Init" = type { i8 }
%"class.std::basic_istream" = type { i32 (...)**, i64, %"class.std::basic_ios" }
%"class.std::basic_ios" = type { %"class.std::ios_base", %"class.std::basic_ostream"*, i8, i8, %"class.std::basic_streambuf"*, %"class.std::ctype"*, %"class.std::num_put"*, %"class.std::num_get"* }
%"class.std::ios_base" = type { i32 (...)**, i64, i64, i32, i32, i32, %"struct.std::ios_base::_Callback_list"*, %"struct.std::ios_base::_Words", [8 x %"struct.std::ios_base::_Words"], i32, %"struct.std::ios_base::_Words"*, %"class.std::locale" }
%"struct.std::ios_base::_Callback_list" = type { %"struct.std::ios_base::_Callback_list"*, void (i32, %"class.std::ios_base"*, i32)*, i32, i32 }
%"struct.std::ios_base::_Words" = type { i8*, i64 }
%"class.std::locale" = type { %"class.std::locale::_Impl"* }
%"class.std::locale::_Impl" = type { i32, %"class.std::locale::facet"**, i64, %"class.std::locale::facet"**, i8** }
%"class.std::locale::facet" = type <{ i32 (...)**, i32, [4 x i8] }>
%"class.std::basic_ostream" = type { i32 (...)**, %"class.std::basic_ios" }
%"class.std::basic_streambuf" = type { i32 (...)**, i8*, i8*, i8*, i8*, i8*, i8*, %"class.std::locale" }
%"class.std::ctype" = type <{ %"class.std::locale::facet.base", [4 x i8], %struct.__locale_struct*, i8, [7 x i8], i32*, i32*, i16*, i8, [256 x i8], [256 x i8], i8, [6 x i8] }>
%"class.std::locale::facet.base" = type <{ i32 (...)**, i32 }>
%struct.__locale_struct = type { [13 x %struct.__locale_data*], i16*, i32*, i32*, [13 x i8*] }
%struct.__locale_data = type opaque
%"class.std::num_put" = type { %"class.std::locale::facet.base", [4 x i8] }
%"class.std::num_get" = type { %"class.std::locale::facet.base", [4 x i8] }

@_ZStL8__ioinit = internal global %"class.std::ios_base::Init" zeroinitializer, align 1
@__dso_handle = external hidden global i8
@_ZSt3cin = external global %"class.std::basic_istream", align 8
@_ZSt4cout = external global %"class.std::basic_ostream", align 8
@.str = private unnamed_addr constant [3 x i8] c"no\00", align 1
@llvm.global_ctors = appending global [1 x { i32, void ()*, i8* }] [{ i32, void ()*, i8* } { i32 65535, void ()* @_GLOBAL__sub_I_1610.cpp, i8* null }]

declare void @_ZNSt8ios_base4InitC1Ev(%"class.std::ios_base::Init"* nonnull align 1 dereferenceable(1)) unnamed_addr #0

; Function Attrs: nounwind
declare void @_ZNSt8ios_base4InitD1Ev(%"class.std::ios_base::Init"* nonnull align 1 dereferenceable(1)) unnamed_addr #1

; Function Attrs: nofree nounwind
declare i32 @__cxa_atexit(void (i8*)*, i8*, i8*) local_unnamed_addr #2

; Function Attrs: mustprogress norecurse sspstrong uwtable
define dso_local i32 @main() local_unnamed_addr #3 {
  %1 = alloca i8, align 1
  %2 = alloca i32, align 4
  %3 = alloca [100000 x i32], align 16
  %4 = alloca [100000 x i8], align 16
  %5 = bitcast i32* %2 to i8*
  call void @llvm.lifetime.start.p0i8(i64 4, i8* nonnull %5) #8
  store i32 0, i32* %2, align 4, !tbaa !5
  %6 = bitcast [100000 x i32]* %3 to i8*
  call void @llvm.lifetime.start.p0i8(i64 400000, i8* nonnull %6) #8
  %7 = getelementptr inbounds [100000 x i8], [100000 x i8]* %4, i64 0, i64 0
  call void @llvm.lifetime.start.p0i8(i64 100000, i8* nonnull %7) #8
  %8 = call nonnull align 8 dereferenceable(16) %"class.std::basic_istream"* @_ZNSirsERi(%"class.std::basic_istream"* nonnull align 8 dereferenceable(16) @_ZSt3cin, i32* nonnull align 4 dereferenceable(4) %2)
  %9 = load i32, i32* %2, align 4, !tbaa !5
  %10 = icmp sgt i32 %9, 0
  br i1 %10, label %11, label %110

11:                                               ; preds = %0, %104
  %12 = phi i32 [ %107, %104 ], [ 0, %0 ]
  call void @llvm.memset.p0i8.i64(i8* noundef nonnull align 16 dereferenceable(400000) %6, i8 0, i64 400000, i1 false)
  call void @_ZSt17__istream_extractRSiPcl(%"class.std::basic_istream"* nonnull align 8 dereferenceable(16) @_ZSt3cin, i8* nonnull %7, i64 100000)
  %13 = load i8, i8* %7, align 16, !tbaa !9
  %14 = icmp eq i8 %13, 0
  br i1 %14, label %76, label %15

15:                                               ; preds = %11, %73
  %16 = phi i64 [ %22, %73 ], [ 0, %11 ]
  %17 = phi i64 [ %75, %73 ], [ 1, %11 ]
  %18 = phi i8 [ %24, %73 ], [ %13, %11 ]
  %19 = getelementptr inbounds [100000 x i32], [100000 x i32]* %3, i64 0, i64 %16
  %20 = load i32, i32* %19, align 4, !tbaa !5
  %21 = icmp eq i32 %20, 0
  %22 = add nuw i64 %16, 1
  %23 = getelementptr inbounds [100000 x i8], [100000 x i8]* %4, i64 0, i64 %22
  %24 = load i8, i8* %23, align 1, !tbaa !9
  br i1 %21, label %25, label %73

25:                                               ; preds = %15
  %26 = icmp eq i8 %24, 0
  br i1 %26, label %43, label %27

27:                                               ; preds = %25, %35
  %28 = phi i64 [ %37, %35 ], [ %17, %25 ]
  %29 = phi i8 [ %39, %35 ], [ %24, %25 ]
  %30 = phi i32 [ %36, %35 ], [ 1, %25 ]
  %31 = icmp eq i8 %29, %18
  br i1 %31, label %32, label %35

32:                                               ; preds = %27
  %33 = getelementptr inbounds [100000 x i32], [100000 x i32]* %3, i64 0, i64 %28
  store i32 1, i32* %33, align 4, !tbaa !5
  %34 = add nsw i32 %30, 1
  br label %35

35:                                               ; preds = %27, %32
  %36 = phi i32 [ %34, %32 ], [ %30, %27 ]
  %37 = add i64 %28, 1
  %38 = getelementptr inbounds [100000 x i8], [100000 x i8]* %4, i64 0, i64 %37
  %39 = load i8, i8* %38, align 1, !tbaa !9
  %40 = icmp eq i8 %39, 0
  br i1 %40, label %41, label %27, !llvm.loop !10

41:                                               ; preds = %35
  %42 = icmp eq i32 %36, 1
  br i1 %42, label %43, label %73

43:                                               ; preds = %25, %41
  call void @llvm.lifetime.start.p0i8(i64 1, i8* nonnull %1)
  store i8 %18, i8* %1, align 1, !tbaa !9
  %44 = call nonnull align 8 dereferenceable(8) %"class.std::basic_ostream"* @_ZSt16__ostream_insertIcSt11char_traitsIcEERSt13basic_ostreamIT_T0_ES6_PKS3_l(%"class.std::basic_ostream"* nonnull align 8 dereferenceable(8) @_ZSt4cout, i8* nonnull %1, i64 1)
  call void @llvm.lifetime.end.p0i8(i64 1, i8* nonnull %1)
  %45 = bitcast %"class.std::basic_ostream"* %44 to i8**
  %46 = load i8*, i8** %45, align 8, !tbaa !12
  %47 = getelementptr i8, i8* %46, i64 -24
  %48 = bitcast i8* %47 to i64*
  %49 = load i64, i64* %48, align 8
  %50 = bitcast %"class.std::basic_ostream"* %44 to i8*
  %51 = add nsw i64 %49, 240
  %52 = getelementptr inbounds i8, i8* %50, i64 %51
  %53 = bitcast i8* %52 to %"class.std::ctype"**
  %54 = load %"class.std::ctype"*, %"class.std::ctype"** %53, align 8, !tbaa !14
  %55 = icmp eq %"class.std::ctype"* %54, null
  br i1 %55, label %56, label %57

56:                                               ; preds = %43
  call void @_ZSt16__throw_bad_castv() #9
  unreachable

57:                                               ; preds = %43
  %58 = getelementptr inbounds %"class.std::ctype", %"class.std::ctype"* %54, i64 0, i32 8
  %59 = load i8, i8* %58, align 8, !tbaa !18
  %60 = icmp eq i8 %59, 0
  br i1 %60, label %64, label %61

61:                                               ; preds = %57
  %62 = getelementptr inbounds %"class.std::ctype", %"class.std::ctype"* %54, i64 0, i32 9, i64 10
  %63 = load i8, i8* %62, align 1, !tbaa !9
  br label %70

64:                                               ; preds = %57
  call void @_ZNKSt5ctypeIcE13_M_widen_initEv(%"class.std::ctype"* nonnull align 8 dereferenceable(570) %54)
  %65 = bitcast %"class.std::ctype"* %54 to i8 (%"class.std::ctype"*, i8)***
  %66 = load i8 (%"class.std::ctype"*, i8)**, i8 (%"class.std::ctype"*, i8)*** %65, align 8, !tbaa !12
  %67 = getelementptr inbounds i8 (%"class.std::ctype"*, i8)*, i8 (%"class.std::ctype"*, i8)** %66, i64 6
  %68 = load i8 (%"class.std::ctype"*, i8)*, i8 (%"class.std::ctype"*, i8)** %67, align 8
  %69 = call signext i8 %68(%"class.std::ctype"* nonnull align 8 dereferenceable(570) %54, i8 signext 10)
  br label %70

70:                                               ; preds = %61, %64
  %71 = phi i8 [ %63, %61 ], [ %69, %64 ]
  %72 = call nonnull align 8 dereferenceable(8) %"class.std::basic_ostream"* @_ZNSo3putEc(%"class.std::basic_ostream"* nonnull align 8 dereferenceable(8) %44, i8 signext %71)
  br label %104

73:                                               ; preds = %15, %41
  %74 = icmp eq i8 %24, 0
  %75 = add i64 %17, 1
  br i1 %74, label %76, label %15, !llvm.loop !20

76:                                               ; preds = %73, %11
  %77 = call nonnull align 8 dereferenceable(8) %"class.std::basic_ostream"* @_ZSt16__ostream_insertIcSt11char_traitsIcEERSt13basic_ostreamIT_T0_ES6_PKS3_l(%"class.std::basic_ostream"* nonnull align 8 dereferenceable(8) @_ZSt4cout, i8* nonnull getelementptr inbounds ([3 x i8], [3 x i8]* @.str, i64 0, i64 0), i64 2)
  %78 = load i8*, i8** bitcast (%"class.std::basic_ostream"* @_ZSt4cout to i8**), align 8, !tbaa !12
  %79 = getelementptr i8, i8* %78, i64 -24
  %80 = bitcast i8* %79 to i64*
  %81 = load i64, i64* %80, align 8
  %82 = add nsw i64 %81, 240
  %83 = getelementptr inbounds i8, i8* bitcast (%"class.std::basic_ostream"* @_ZSt4cout to i8*), i64 %82
  %84 = bitcast i8* %83 to %"class.std::ctype"**
  %85 = load %"class.std::ctype"*, %"class.std::ctype"** %84, align 8, !tbaa !14
  %86 = icmp eq %"class.std::ctype"* %85, null
  br i1 %86, label %87, label %88

87:                                               ; preds = %76
  call void @_ZSt16__throw_bad_castv() #9
  unreachable

88:                                               ; preds = %76
  %89 = getelementptr inbounds %"class.std::ctype", %"class.std::ctype"* %85, i64 0, i32 8
  %90 = load i8, i8* %89, align 8, !tbaa !18
  %91 = icmp eq i8 %90, 0
  br i1 %91, label %95, label %92

92:                                               ; preds = %88
  %93 = getelementptr inbounds %"class.std::ctype", %"class.std::ctype"* %85, i64 0, i32 9, i64 10
  %94 = load i8, i8* %93, align 1, !tbaa !9
  br label %101

95:                                               ; preds = %88
  call void @_ZNKSt5ctypeIcE13_M_widen_initEv(%"class.std::ctype"* nonnull align 8 dereferenceable(570) %85)
  %96 = bitcast %"class.std::ctype"* %85 to i8 (%"class.std::ctype"*, i8)***
  %97 = load i8 (%"class.std::ctype"*, i8)**, i8 (%"class.std::ctype"*, i8)*** %96, align 8, !tbaa !12
  %98 = getelementptr inbounds i8 (%"class.std::ctype"*, i8)*, i8 (%"class.std::ctype"*, i8)** %97, i64 6
  %99 = load i8 (%"class.std::ctype"*, i8)*, i8 (%"class.std::ctype"*, i8)** %98, align 8
  %100 = call signext i8 %99(%"class.std::ctype"* nonnull align 8 dereferenceable(570) %85, i8 signext 10)
  br label %101

101:                                              ; preds = %92, %95
  %102 = phi i8 [ %94, %92 ], [ %100, %95 ]
  %103 = call nonnull align 8 dereferenceable(8) %"class.std::basic_ostream"* @_ZNSo3putEc(%"class.std::basic_ostream"* nonnull align 8 dereferenceable(8) @_ZSt4cout, i8 signext %102)
  br label %104

104:                                              ; preds = %70, %101
  %105 = phi %"class.std::basic_ostream"* [ %72, %70 ], [ %103, %101 ]
  %106 = call nonnull align 8 dereferenceable(8) %"class.std::basic_ostream"* @_ZNSo5flushEv(%"class.std::basic_ostream"* nonnull align 8 dereferenceable(8) %105)
  %107 = add nuw nsw i32 %12, 1
  %108 = load i32, i32* %2, align 4, !tbaa !5
  %109 = icmp slt i32 %107, %108
  br i1 %109, label %11, label %110, !llvm.loop !21

110:                                              ; preds = %104, %0
  call void @llvm.lifetime.end.p0i8(i64 100000, i8* nonnull %7) #8
  call void @llvm.lifetime.end.p0i8(i64 400000, i8* nonnull %6) #8
  call void @llvm.lifetime.end.p0i8(i64 4, i8* nonnull %5) #8
  ret i32 0
}

; Function Attrs: argmemonly mustprogress nofree nosync nounwind willreturn
declare void @llvm.lifetime.start.p0i8(i64 immarg, i8* nocapture) #4

; Function Attrs: argmemonly mustprogress nofree nounwind willreturn writeonly
declare void @llvm.memset.p0i8.i64(i8* nocapture writeonly, i8, i64, i1 immarg) #5

declare nonnull align 8 dereferenceable(16) %"class.std::basic_istream"* @_ZNSirsERi(%"class.std::basic_istream"* nonnull align 8 dereferenceable(16), i32* nonnull align 4 dereferenceable(4)) local_unnamed_addr #0

; Function Attrs: argmemonly mustprogress nofree nosync nounwind willreturn
declare void @llvm.lifetime.end.p0i8(i64 immarg, i8* nocapture) #4

declare void @_ZSt17__istream_extractRSiPcl(%"class.std::basic_istream"* nonnull align 8 dereferenceable(16), i8*, i64) local_unnamed_addr #0

declare nonnull align 8 dereferenceable(8) %"class.std::basic_ostream"* @_ZSt16__ostream_insertIcSt11char_traitsIcEERSt13basic_ostreamIT_T0_ES6_PKS3_l(%"class.std::basic_ostream"* nonnull align 8 dereferenceable(8), i8*, i64) local_unnamed_addr #0

declare nonnull align 8 dereferenceable(8) %"class.std::basic_ostream"* @_ZNSo3putEc(%"class.std::basic_ostream"* nonnull align 8 dereferenceable(8), i8 signext) local_unnamed_addr #0

declare nonnull align 8 dereferenceable(8) %"class.std::basic_ostream"* @_ZNSo5flushEv(%"class.std::basic_ostream"* nonnull align 8 dereferenceable(8)) local_unnamed_addr #0

; Function Attrs: noreturn
declare void @_ZSt16__throw_bad_castv() local_unnamed_addr #6

declare void @_ZNKSt5ctypeIcE13_M_widen_initEv(%"class.std::ctype"* nonnull align 8 dereferenceable(570)) local_unnamed_addr #0

; Function Attrs: sspstrong uwtable
define internal void @_GLOBAL__sub_I_1610.cpp() #7 section ".text.startup" {
  tail call void @_ZNSt8ios_base4InitC1Ev(%"class.std::ios_base::Init"* nonnull align 1 dereferenceable(1) @_ZStL8__ioinit)
  %1 = tail call i32 @__cxa_atexit(void (i8*)* bitcast (void (%"class.std::ios_base::Init"*)* @_ZNSt8ios_base4InitD1Ev to void (i8*)*), i8* getelementptr inbounds (%"class.std::ios_base::Init", %"class.std::ios_base::Init"* @_ZStL8__ioinit, i64 0, i32 0), i8* nonnull @__dso_handle) #8
  ret void
}


!llvm.module.flags = !{!0, !1, !2, !3}
!llvm.ident = !{!4}

!0 = !{i32 1, !"wchar_size", i32 4}
!1 = !{i32 7, !"PIC Level", i32 2}
!2 = !{i32 7, !"PIE Level", i32 2}
!3 = !{i32 7, !"uwtable", i32 1}
!4 = !{!"clang version 13.0.0"}
!5 = !{!6, !6, i64 0}
!6 = !{!"int", !7, i64 0}
!7 = !{!"omnipotent char", !8, i64 0}
!8 = !{!"Simple C++ TBAA"}
!9 = !{!7, !7, i64 0}
!10 = distinct !{!10, !11}
!11 = !{!"llvm.loop.mustprogress"}
!12 = !{!13, !13, i64 0}
!13 = !{!"vtable pointer", !8, i64 0}
!14 = !{!15, !16, i64 240}
!15 = !{!"_ZTSSt9basic_iosIcSt11char_traitsIcEE", !16, i64 216, !7, i64 224, !17, i64 225, !16, i64 232, !16, i64 240, !16, i64 248, !16, i64 256}
!16 = !{!"any pointer", !7, i64 0}
!17 = !{!"bool", !7, i64 0}
!18 = !{!19, !7, i64 56}
!19 = !{!"_ZTSSt5ctypeIcE", !16, i64 16, !17, i64 24, !16, i64 32, !16, i64 40, !16, i64 48, !7, i64 56, !7, i64 57, !7, i64 313, !7, i64 569}
!20 = distinct !{!20, !11}
!21 = distinct !{!21, !11}
